target datalayout = "e-m:e-p270:32:32-p271:32:32-p272:64:64-i64:64-i128:128-f80:128-n8:16:32:64-S128"
target triple = "x86_64-pc-linux-gnu"

%struct.CVodeMemRec = type { double, ptr, ptr, i32, i32, i32, double, double, ptr, i32, ptr, ptr, i32, ptr, i32, i32, double, double, ptr, i32, i32, i32, ptr, ptr, ptr, i32, i32, ptr, ptr, ptr, i32, double, i32, i32, double, ptr, ptr, i32, ptr, ptr, i32, i32, i32, double, ptr, ptr, [13 x ptr], ptr, ptr, ptr, ptr, ptr, [13 x ptr], ptr, ptr, ptr, ptr, [13 x ptr], ptr, ptr, ptr, ptr, ptr, i32, [13 x ptr], ptr, ptr, ptr, ptr, ptr, i32, double, i32, i32, i32, i32, i32, double, double, double, double, double, double, double, double, [14 x double], [6 x double], [13 x double], double, double, double, double, double, double, double, double, double, double, double, i32, ptr, i32, i64, i32, i32, i32, i32, i32, double, double, double, i64, i64, i64, i64, i64, i64, i64, i64, i64, ptr, i64, i64, ptr, i64, i64, i64, i64, i64, i64, i32, i64, i64, i64, i64, i64, i64, double, double, double, ptr, ptr, ptr, ptr, ptr, i32, i32, i64, double, double, double, i32, double, i32, i32, i32, i32, i32, i32, i32, i32, i32, i32, i32, i32, i32, i32, i32, i32, ptr, ptr, ptr, i32, [6 x [4 x double]], i32, i64, ptr, i32, ptr, ptr, double, double, double, ptr, ptr, ptr, double, double, i32, i32, i64, ptr, i32, i32, ptr, i32 }

@_ZTISt9exception = external constant ptr
@.str.113 = private unnamed_addr constant [17 x i8] c"lsolveF failed: \00", align 1

; Function Attrs: mustprogress uwtable
define noundef i32 @_ZN6casadi15CvodesInterface7lsolveFEP11CVodeMemRecP17_generic_N_VectorS4_S4_S4_(ptr noundef %0, ptr noundef %1, ptr noundef %2, ptr noundef %3, ptr noundef %4) #4 align 2 personality ptr @__gxx_personality_v0 {
  %6 = alloca i32, align 4
  %7 = alloca ptr, align 8
  %8 = alloca ptr, align 8
  %9 = alloca ptr, align 8
  %10 = alloca ptr, align 8
  %11 = alloca ptr, align 8
  %12 = alloca ptr, align 8
  %13 = alloca ptr, align 8
  %14 = alloca i32, align 4
  %15 = alloca double, align 8
  %16 = alloca double, align 8
  %17 = alloca double, align 8
  %18 = alloca i64, align 8
  %19 = alloca ptr, align 8
  store ptr %0, ptr %7, align 8
  store ptr %1, ptr %8, align 8
  store ptr %2, ptr %9, align 8
  store ptr %3, ptr %10, align 8
  store ptr %4, ptr %11, align 8
  %20 = load ptr, ptr %7, align 8
  %21 = getelementptr inbounds %struct.CVodeMemRec, ptr %20, i32 0, i32 144
  %22 = load ptr, ptr %21, align 8
  %23 = invoke noundef ptr @_ZN6casadi15CvodesInterface6to_memEPv(ptr noundef %22)
          to label %24 unwind label %43

24:                                               ; preds = %5
  store ptr %23, ptr %12, align 8
  %25 = load ptr, ptr %7, align 8
  %26 = getelementptr inbounds %struct.CVodeMemRec, ptr %25, i32 0, i32 83
  %27 = load double, ptr %26, align 8
  store double %27, ptr %15, align 8
  %28 = load ptr, ptr %7, align 8
  %29 = getelementptr inbounds %struct.CVodeMemRec, ptr %28, i32 0, i32 89
  %30 = load double, ptr %29, align 8
  store double %30, ptr %16, align 8
  store double 0.000000e+00, ptr %17, align 8
  store i64 1, ptr %18, align 8
  %31 = load double, ptr %15, align 8
  %32 = load ptr, ptr %10, align 8
  %33 = load ptr, ptr %11, align 8
  %34 = load ptr, ptr %8, align 8
  %35 = load ptr, ptr %8, align 8
  %36 = load double, ptr %16, align 8
  %37 = load double, ptr %17, align 8
  %38 = load i64, ptr %18, align 8
  %39 = trunc i64 %38 to i32
  %40 = load ptr, ptr %12, align 8
  %41 = invoke noundef i32 @_ZN6casadi15CvodesInterface7psolveFEdP17_generic_N_VectorS2_S2_S2_ddiPvS2_(double noundef %31, ptr noundef %32, ptr noundef %33, ptr noundef %34, ptr noundef %35, double noundef %36, double noundef %37, i32 noundef %39, ptr noundef %40, ptr noundef null)
          to label %42 unwind label %43

42:                                               ; preds = %24
  store i32 %41, ptr %6, align 4
  br label %73

43:                                               ; preds = %24, %5
  %44 = landingpad { ptr, i32 }
          catch ptr @_ZTISt9exception
  %45 = extractvalue { ptr, i32 } %44, 0
  store ptr %45, ptr %13, align 8
  %46 = extractvalue { ptr, i32 } %44, 1
  store i32 %46, ptr %14, align 4
  br label %47

47:                                               ; preds = %43
  %48 = load i32, ptr %14, align 4
  %49 = call i32 @llvm.eh.typeid.for(ptr @_ZTISt9exception) #3
  %50 = icmp eq i32 %48, %49
  br i1 %50, label %51, label %75

51:                                               ; preds = %47
  %52 = load ptr, ptr %13, align 8
  %53 = call ptr @__cxa_begin_catch(ptr %52) #3
  store ptr %53, ptr %19, align 8
  %54 = invoke noundef nonnull align 8 dereferenceable(8) ptr @_ZN6casadi4uerrEv()
          to label %55 unwind label %67

55:                                               ; preds = %51
  %56 = invoke noundef nonnull align 8 dereferenceable(8) ptr @_ZStlsISt11char_traitsIcEERSt13basic_ostreamIcT_ES5_PKc(ptr noundef nonnull align 8 dereferenceable(8) %54, ptr noundef @.str.113)
          to label %57 unwind label %67

57:                                               ; preds = %55
  %58 = load ptr, ptr %19, align 8
  %59 = load ptr, ptr %58, align 8
  %60 = getelementptr inbounds ptr, ptr %59, i64 2
  %61 = load ptr, ptr %60, align 8
  %62 = call noundef ptr %61(ptr noundef nonnull align 8 dereferenceable(8) %58) #3
  %63 = invoke noundef nonnull align 8 dereferenceable(8) ptr @_ZStlsISt11char_traitsIcEERSt13basic_ostreamIcT_ES5_PKc(ptr noundef nonnull align 8 dereferenceable(8) %56, ptr noundef %62)
          to label %64 unwind label %67

64:                                               ; preds = %57
  %65 = invoke noundef nonnull align 8 dereferenceable(8) ptr @_ZNSolsEPFRSoS_E(ptr noundef nonnull align 8 dereferenceable(8) %63, ptr noundef @_ZSt4endlIcSt11char_traitsIcEERSt13basic_ostreamIT_T0_ES6_)
          to label %66 unwind label %67

66:                                               ; preds = %64
  store i32 -1, ptr %6, align 4
  call void @__cxa_end_catch()
  br label %73

67:                                               ; preds = %64, %57, %55, %51
  %68 = landingpad { ptr, i32 }
          cleanup
  %69 = extractvalue { ptr, i32 } %68, 0
  store ptr %69, ptr %13, align 8
  %70 = extractvalue { ptr, i32 } %68, 1
  store i32 %70, ptr %14, align 4
  invoke void @__cxa_end_catch()
          to label %71 unwind label %80

71:                                               ; preds = %67
  br label %75

72:                                               ; No predecessors!
  call void @llvm.trap()
  unreachable

73:                                               ; preds = %66, %42
  %74 = load i32, ptr %6, align 4
  ret i32 %74

75:                                               ; preds = %71, %47
  %76 = load ptr, ptr %13, align 8
  %77 = load i32, ptr %14, align 4
  %78 = insertvalue { ptr, i32 } poison, ptr %76, 0
  %79 = insertvalue { ptr, i32 } %78, i32 %77, 1
  resume { ptr, i32 } %79

80:                                               ; preds = %67
  %81 = landingpad { ptr, i32 }
          catch ptr null
  %82 = extractvalue { ptr, i32 } %81, 0
  call void @__clang_call_terminate(ptr %82) #17
  unreachable
}