; Function Attrs: mustprogress uwtable
define noundef i32 @_ZN6casadi15CvodesInterface7lsolveFEP11CVodeMemRecP17_generic_N_VectorS4_S4_S4_(ptr nocapture noundef readonly %0, ptr nocapture noundef readonly %1, ptr nocapture readnone %2, ptr nocapture noundef readonly %3, ptr nocapture noundef readnone %4) #3 align 2 personality ptr @__gxx_personality_v0 {
  %6 = getelementptr inbounds i8, ptr %0, i64 1696
  %7 = load ptr, ptr %6, align 8
  %8 = invoke noundef ptr @_ZN6casadi15CvodesInterface6to_memEPv(ptr noundef %7)
          to label %9 unwind label %13

9:                                                ; preds = %5
  %10 = getelementptr inbounds i8, ptr %0, i64 984
  %11 = load double, ptr %10, align 8
  %12 = invoke noundef i32 @_ZN6casadi15CvodesInterface7psolveFEdP17_generic_N_VectorS2_S2_S2_ddiPvS2_(double noundef %11, ptr noundef %3, ptr poison, ptr noundef %1, ptr noundef %1, double poison, double poison, i32 poison, ptr noundef %8, ptr poison)
          to label %35 unwind label %13, !range !30

13:                                               ; preds = %9, %5
  %14 = landingpad { ptr, i32 }
          catch ptr @_ZTISt9exception
  %15 = extractvalue { ptr, i32 } %14, 1
  %16 = tail call i32 @llvm.eh.typeid.for(ptr nonnull @_ZTISt9exception) #20
  %17 = icmp eq i32 %15, %16
  br i1 %17, label %18, label %36

18:                                               ; preds = %13
  %19 = extractvalue { ptr, i32 } %14, 0
  %20 = tail call ptr @__cxa_begin_catch(ptr %19) #20
  %21 = invoke noundef nonnull align 8 dereferenceable(8) ptr @_ZN6casadi4uerrEv()
          to label %22 unwind label %33

22:                                               ; preds = %18
  %23 = invoke noundef nonnull align 8 dereferenceable(8) ptr @_ZStlsISt11char_traitsIcEERSt13basic_ostreamIcT_ES5_PKc(ptr noundef nonnull align 8 dereferenceable(8) %21, ptr noundef nonnull @.str.113)
          to label %24 unwind label %33

24:                                               ; preds = %22
  %25 = load ptr, ptr %20, align 8
  %26 = getelementptr inbounds i8, ptr %25, i64 16
  %27 = load ptr, ptr %26, align 8
  %28 = tail call noundef ptr %27(ptr noundef nonnull align 8 dereferenceable(8) %20) #20
  %29 = invoke noundef nonnull align 8 dereferenceable(8) ptr @_ZStlsISt11char_traitsIcEERSt13basic_ostreamIcT_ES5_PKc(ptr noundef nonnull align 8 dereferenceable(8) %23, ptr noundef %28)
          to label %30 unwind label %33

30:                                               ; preds = %24
  %31 = invoke noundef nonnull align 8 dereferenceable(8) ptr @_ZNSolsEPFRSoS_E(ptr noundef nonnull align 8 dereferenceable(8) %29, ptr noundef nonnull @_ZSt4endlIcSt11char_traitsIcEERSt13basic_ostreamIT_T0_ES6_)
          to label %32 unwind label %33

32:                                               ; preds = %30
  tail call void @__cxa_end_catch()
  br label %35

33:                                               ; preds = %30, %24, %22, %18
  %34 = landingpad { ptr, i32 }
          cleanup
  invoke void @__cxa_end_catch()
          to label %36 unwind label %37

35:                                               ; preds = %9, %32
  %.0 = phi i32 [ -1, %32 ], [ %12, %9 ]
  ret i32 %.0

36:                                               ; preds = %33, %13
  %.merged = phi { ptr, i32 } [ %34, %33 ], [ %14, %13 ]
  resume { ptr, i32 } %.merged

37:                                               ; preds = %33
  %38 = landingpad { ptr, i32 }
          catch ptr null
  %39 = extractvalue { ptr, i32 } %38, 0
  tail call void @__clang_call_terminate(ptr %39) #23
  unreachable
}